; Function Attrs: mustprogress nounwind uwtable
define void @_ZN5folly5CodelC2ERKNS0_7OptionsE(ptr noundef nonnull writeonly align 8 captures(none) dereferenceable(34) initializes((0, 34)) %0, ptr noundef nonnull readonly align 8 captures(none) dereferenceable(16) %1) unnamed_addr #1 align 2 {
  store i64 0, ptr %0, align 8, !tbaa !11
  %3 = getelementptr inbounds nuw i8, ptr %0, i64 8
  %4 = tail call i64 @_ZNSt6chrono3_V212steady_clock3nowEv() #9
  store i64 %4, ptr %3, align 8, !tbaa !11
  %5 = getelementptr inbounds nuw i8, ptr %0, i64 16
  %6 = getelementptr inbounds nuw i8, ptr %1, i64 8
  %.sroa.0.0.copyload.i4 = load i64, ptr %6, align 8, !tbaa !14
  store i64 %.sroa.0.0.copyload.i4, ptr %5, align 8, !tbaa !14
  %7 = getelementptr inbounds nuw i8, ptr %0, i64 24
  %.sroa.0.0.copyload.i5 = load i64, ptr %1, align 8, !tbaa !14
  store i64 %.sroa.0.0.copyload.i5, ptr %7, align 8, !tbaa !14
  %8 = getelementptr inbounds nuw i8, ptr %0, i64 32
  store i8 1, ptr %8, align 8, !tbaa !15
  %9 = getelementptr inbounds nuw i8, ptr %0, i64 33
  store i8 0, ptr %9, align 1, !tbaa !15
  ret void
}